target datalayout = "e-m:e-p270:32:32-p271:32:32-p272:64:64-i64:64-i128:128-f80:128-n8:16:32:64-S128"
target triple = "x86_64-pc-linux-gnu"

%struct.strvec = type { ptr, i64, i64 }
%struct.child_process = type { %struct.strvec, %struct.strvec, i32, i32, i64, ptr, ptr, i32, i32, i32, ptr, i16, ptr }
%struct.repository = type { ptr, ptr, ptr, ptr, ptr, %struct.strmap, %struct.strmap, %struct.repo_path_cache, ptr, ptr, ptr, ptr, %struct.repo_settings, ptr, ptr, ptr, ptr, ptr, ptr, i32, i32, i32, ptr, ptr, i32, i32, i8 }
%struct.strmap = type { %struct.hashmap, ptr, i8 }
%struct.hashmap = type { ptr, ptr, ptr, i32, i32, i32, i32, i8 }
%struct.repo_path_cache = type { ptr, ptr, ptr, ptr, ptr, ptr, ptr }
%struct.repo_settings = type { i32, i32, i32, i32, i32, i32, i32, i32, i32, i32, i32, i32, ptr, i32, i32, i32, i32, i32, i32, i32, i64, i64, i64 }
%struct.git_hash_algo = type { ptr, i32, i64, i64, i64, ptr, ptr, ptr, ptr, ptr, ptr, ptr, ptr, ptr }

@the_repository = external global ptr, align 8
@.str.138 = private unnamed_addr constant [56 x i8] c"could not start pack-objects to repack promisor objects\00", align 1
@.str.139 = private unnamed_addr constant [2 x i8] c"\0A\00", align 1
@.str.140 = private unnamed_addr constant [48 x i8] c"failed to feed promisor objects to pack-objects\00", align 1

; Function Attrs: nounwind uwtable
define internal i32 @write_oid(ptr noundef %0, ptr noundef %1, i32 noundef %2, ptr noundef %3) #0 {
  %5 = alloca ptr, align 8
  %6 = alloca ptr, align 8
  %7 = alloca i32, align 4
  %8 = alloca ptr, align 8
  %9 = alloca ptr, align 8
  store ptr %0, ptr %5, align 8, !tbaa !161
  store ptr %1, ptr %6, align 8, !tbaa !63
  store i32 %2, ptr %7, align 4, !tbaa !4
  store ptr %3, ptr %8, align 8, !tbaa !97
  call void @llvm.lifetime.start.p0(i64 8, ptr %9) #10
  %10 = load ptr, ptr %8, align 8, !tbaa !97
  store ptr %10, ptr %9, align 8, !tbaa !125
  %11 = load ptr, ptr %9, align 8, !tbaa !125
  %12 = getelementptr inbounds nuw %struct.child_process, ptr %11, i32 0, i32 7
  %13 = load i32, ptr %12, align 8, !tbaa !56
  %14 = icmp eq i32 %13, -1
  br i1 %14, label %15, label %22

15:                                               ; preds = %4
  %16 = load ptr, ptr %9, align 8, !tbaa !125
  %17 = call i32 @start_command(ptr noundef %16)
  %18 = icmp ne i32 %17, 0
  br i1 %18, label %19, label %21

19:                                               ; preds = %15
  %20 = call ptr @_(ptr noundef @.str.138)
  call void (ptr, ...) @die(ptr noundef %20) #11
  unreachable

21:                                               ; preds = %15
  br label %22

22:                                               ; preds = %21, %4
  %23 = load ptr, ptr %9, align 8, !tbaa !125
  %24 = getelementptr inbounds nuw %struct.child_process, ptr %23, i32 0, i32 7
  %25 = load i32, ptr %24, align 8, !tbaa !56
  %26 = load ptr, ptr %5, align 8, !tbaa !161
  %27 = call ptr @oid_to_hex(ptr noundef %26)
  %28 = load ptr, ptr @the_repository, align 8, !tbaa !13
  %29 = getelementptr inbounds nuw %struct.repository, ptr %28, i32 0, i32 17
  %30 = load ptr, ptr %29, align 8, !tbaa !131
  %31 = getelementptr inbounds nuw %struct.git_hash_algo, ptr %30, i32 0, i32 3
  %32 = load i64, ptr %31, align 8, !tbaa !132
  %33 = call i64 @write_in_full(i32 noundef %25, ptr noundef %27, i64 noundef %32)
  %34 = icmp slt i64 %33, 0
  br i1 %34, label %41, label %35

35:                                               ; preds = %22
  %36 = load ptr, ptr %9, align 8, !tbaa !125
  %37 = getelementptr inbounds nuw %struct.child_process, ptr %36, i32 0, i32 7
  %38 = load i32, ptr %37, align 8, !tbaa !56
  %39 = call i64 @write_in_full(i32 noundef %38, ptr noundef @.str.139, i64 noundef 1)
  %40 = icmp slt i64 %39, 0
  br i1 %40, label %41, label %43

41:                                               ; preds = %35, %22
  %42 = call ptr @_(ptr noundef @.str.140)
  call void (ptr, ...) @die(ptr noundef %42) #11
  unreachable

43:                                               ; preds = %35
  call void @llvm.lifetime.end.p0(i64 8, ptr %9) #10
  ret i32 0
}