; Function Attrs: nounwind uwtable
define internal noundef i32 @write_oid(ptr noundef %0, ptr readnone captures(none) %1, i32 %2, ptr noundef %3) #0 {
  %5 = getelementptr inbounds nuw i8, ptr %3, i64 80
  %6 = load i32, ptr %5, align 8, !tbaa !70
  %7 = icmp eq i32 %6, -1
  br i1 %7, label %8, label %12

8:                                                ; preds = %4
  %9 = tail call i32 @start_command(ptr noundef nonnull %3) #16
  %.not = icmp eq i32 %9, 0
  br i1 %.not, label %._crit_edge, label %10

._crit_edge:                                      ; preds = %8
  %.pre = load i32, ptr %5, align 8, !tbaa !70
  br label %12

10:                                               ; preds = %8
  %11 = tail call fastcc ptr @_(ptr noundef nonnull @.str.138)
  tail call void (ptr, ...) @die(ptr noundef %11) #17
  unreachable

12:                                               ; preds = %._crit_edge, %4
  %13 = phi i32 [ %.pre, %._crit_edge ], [ %6, %4 ]
  %14 = tail call ptr @oid_to_hex(ptr noundef %0) #16
  %15 = load ptr, ptr @the_repository, align 8, !tbaa !22
  %16 = getelementptr inbounds nuw i8, ptr %15, i64 400
  %17 = load ptr, ptr %16, align 8, !tbaa !75
  %18 = getelementptr inbounds nuw i8, ptr %17, i64 24
  %19 = load i64, ptr %18, align 8, !tbaa !93
  %20 = tail call i64 @write_in_full(i32 noundef %13, ptr noundef %14, i64 noundef %19) #16
  %21 = icmp slt i64 %20, 0
  br i1 %21, label %26, label %22

22:                                               ; preds = %12
  %23 = load i32, ptr %5, align 8, !tbaa !70
  %24 = tail call i64 @write_in_full(i32 noundef %23, ptr noundef nonnull @.str.139, i64 noundef 1) #16
  %25 = icmp slt i64 %24, 0
  br i1 %25, label %26, label %28

26:                                               ; preds = %22, %12
  %27 = tail call fastcc ptr @_(ptr noundef nonnull @.str.140)
  tail call void (ptr, ...) @die(ptr noundef %27) #17
  unreachable

28:                                               ; preds = %22
  ret i32 0
}